; Function Attrs: nofree norecurse nosync nounwind memory(read, inaccessiblemem: none) uwtable
define range(i32 -2147483648, 2147483647) i32 @Saig_ManCexFirstFlopPi(ptr noundef readonly captures(none) %0, ptr noundef readonly captures(none) %1) local_unnamed_addr #5 {
  %3 = getelementptr inbounds nuw i8, ptr %0, i64 16
  %4 = load ptr, ptr %3, align 8
  %5 = getelementptr i8, ptr %4, i64 4
  %.val11 = load i32, ptr %5, align 4
  %6 = icmp sgt i32 %.val11, 0
  br i1 %6, label %.lr.ph, label %.critedge

.lr.ph:                                           ; preds = %2
  %7 = getelementptr inbounds nuw i8, ptr %1, i64 472
  %8 = load ptr, ptr %7, align 8
  %9 = getelementptr i8, ptr %8, i64 8
  %.val12 = load ptr, ptr %9, align 8
  %10 = getelementptr i8, ptr %0, i64 108
  %.val = load i32, ptr %10, align 4
  %wide.trip.count = zext nneg i32 %.val11 to i64
  br label %11

11:                                               ; preds = %.lr.ph, %14
  %indvars.iv = phi i64 [ 0, %.lr.ph ], [ %indvars.iv.next, %14 ]
  %12 = getelementptr inbounds nuw i32, ptr %.val12, i64 %indvars.iv
  %13 = load i32, ptr %12, align 4
  %.not = icmp slt i32 %13, %.val
  br i1 %.not, label %14, label %.critedge.loopexit.split.loop.exit17

14:                                               ; preds = %11
  %indvars.iv.next = add nuw nsw i64 %indvars.iv, 1
  %exitcond.not = icmp eq i64 %indvars.iv.next, %wide.trip.count
  br i1 %exitcond.not, label %.critedge, label %11, !llvm.loop !8

.critedge.loopexit.split.loop.exit17:             ; preds = %11
  %15 = trunc nuw nsw i64 %indvars.iv to i32
  br label %.critedge

.critedge:                                        ; preds = %14, %.critedge.loopexit.split.loop.exit17, %2
  %.09 = phi i32 [ -1, %2 ], [ %15, %.critedge.loopexit.split.loop.exit17 ], [ -1, %14 ]
  ret i32 %.09
}